target datalayout = "e-m:e-p270:32:32-p271:32:32-p272:64:64-i64:64-i128:128-f80:128-n8:16:32:64-S128"
target triple = "x86_64-pc-linux-gnu"

%struct.Node = type { i32 }
%struct.Path = type { i32, i32, ptr, ptr, ptr, i8, i8, i32, double, i32, double, double, ptr }
%struct.AppendPath = type { %struct.Path, ptr, i32, double }
%struct.MergeAppendPath = type { %struct.Path, ptr, double }

; Function Attrs: nounwind uwtable
define internal void @accumulate_append_subpath(ptr noundef %0, ptr noundef %1, ptr noundef %2) #0 {
  %4 = alloca ptr, align 8
  %5 = alloca ptr, align 8
  %6 = alloca ptr, align 8
  %7 = alloca ptr, align 8
  %8 = alloca i32, align 4
  %9 = alloca ptr, align 8
  %10 = alloca ptr, align 8
  store ptr %0, ptr %4, align 8
  store ptr %1, ptr %5, align 8
  store ptr %2, ptr %6, align 8
  %11 = load ptr, ptr %4, align 8
  %12 = getelementptr inbounds nuw %struct.Node, ptr %11, i32 0, i32 0
  %13 = load i32, ptr %12, align 4
  %14 = icmp eq i32 %13, 289
  br i1 %14, label %15, label %67

15:                                               ; preds = %3
  call void @llvm.lifetime.start.p0(i64 8, ptr %7) #8
  %16 = load ptr, ptr %4, align 8
  store ptr %16, ptr %7, align 8
  %17 = load ptr, ptr %7, align 8
  %18 = getelementptr inbounds nuw %struct.AppendPath, ptr %17, i32 0, i32 0
  %19 = getelementptr inbounds nuw %struct.Path, ptr %18, i32 0, i32 5
  %20 = load i8, ptr %19, align 8, !range !7, !noundef !8
  %21 = trunc i8 %20 to i1
  br i1 %21, label %22, label %27

22:                                               ; preds = %15
  %23 = load ptr, ptr %7, align 8
  %24 = getelementptr inbounds nuw %struct.AppendPath, ptr %23, i32 0, i32 2
  %25 = load i32, ptr %24, align 8
  %26 = icmp eq i32 %25, 0
  br i1 %26, label %27, label %35

27:                                               ; preds = %22, %15
  %28 = load ptr, ptr %5, align 8
  %29 = load ptr, ptr %28, align 8
  %30 = load ptr, ptr %7, align 8
  %31 = getelementptr inbounds nuw %struct.AppendPath, ptr %30, i32 0, i32 1
  %32 = load ptr, ptr %31, align 8
  %33 = call ptr @list_concat(ptr noundef %29, ptr noundef %32)
  %34 = load ptr, ptr %5, align 8
  store ptr %33, ptr %34, align 8
  store i32 1, ptr %8, align 4
  br label %64

35:                                               ; preds = %22
  %36 = load ptr, ptr %6, align 8
  %37 = icmp ne ptr %36, null
  br i1 %37, label %38, label %62

38:                                               ; preds = %35
  call void @llvm.lifetime.start.p0(i64 8, ptr %9) #8
  %39 = load ptr, ptr %5, align 8
  %40 = load ptr, ptr %39, align 8
  %41 = load ptr, ptr %7, align 8
  %42 = getelementptr inbounds nuw %struct.AppendPath, ptr %41, i32 0, i32 1
  %43 = load ptr, ptr %42, align 8
  %44 = load ptr, ptr %7, align 8
  %45 = getelementptr inbounds nuw %struct.AppendPath, ptr %44, i32 0, i32 2
  %46 = load i32, ptr %45, align 8
  %47 = call ptr @list_copy_tail(ptr noundef %43, i32 noundef %46)
  %48 = call ptr @list_concat(ptr noundef %40, ptr noundef %47)
  %49 = load ptr, ptr %5, align 8
  store ptr %48, ptr %49, align 8
  %50 = load ptr, ptr %7, align 8
  %51 = getelementptr inbounds nuw %struct.AppendPath, ptr %50, i32 0, i32 1
  %52 = load ptr, ptr %51, align 8
  %53 = load ptr, ptr %7, align 8
  %54 = getelementptr inbounds nuw %struct.AppendPath, ptr %53, i32 0, i32 2
  %55 = load i32, ptr %54, align 8
  %56 = call ptr @list_copy_head(ptr noundef %52, i32 noundef %55)
  store ptr %56, ptr %9, align 8
  %57 = load ptr, ptr %6, align 8
  %58 = load ptr, ptr %57, align 8
  %59 = load ptr, ptr %9, align 8
  %60 = call ptr @list_concat(ptr noundef %58, ptr noundef %59)
  %61 = load ptr, ptr %6, align 8
  store ptr %60, ptr %61, align 8
  store i32 1, ptr %8, align 4
  call void @llvm.lifetime.end.p0(i64 8, ptr %9) #8
  br label %64

62:                                               ; preds = %35
  br label %63

63:                                               ; preds = %62
  store i32 0, ptr %8, align 4
  br label %64

64:                                               ; preds = %63, %38, %27
  call void @llvm.lifetime.end.p0(i64 8, ptr %7) #8
  %65 = load i32, ptr %8, align 4
  switch i32 %65, label %89 [
    i32 0, label %66
    i32 1, label %88
  ]

66:                                               ; preds = %64
  br label %82

67:                                               ; preds = %3
  %68 = load ptr, ptr %4, align 8
  %69 = getelementptr inbounds nuw %struct.Node, ptr %68, i32 0, i32 0
  %70 = load i32, ptr %69, align 4
  %71 = icmp eq i32 %70, 290
  br i1 %71, label %72, label %81

72:                                               ; preds = %67
  call void @llvm.lifetime.start.p0(i64 8, ptr %10) #8
  %73 = load ptr, ptr %4, align 8
  store ptr %73, ptr %10, align 8
  %74 = load ptr, ptr %5, align 8
  %75 = load ptr, ptr %74, align 8
  %76 = load ptr, ptr %10, align 8
  %77 = getelementptr inbounds nuw %struct.MergeAppendPath, ptr %76, i32 0, i32 1
  %78 = load ptr, ptr %77, align 8
  %79 = call ptr @list_concat(ptr noundef %75, ptr noundef %78)
  %80 = load ptr, ptr %5, align 8
  store ptr %79, ptr %80, align 8
  store i32 1, ptr %8, align 4
  call void @llvm.lifetime.end.p0(i64 8, ptr %10) #8
  br label %88

81:                                               ; preds = %67
  br label %82

82:                                               ; preds = %81, %66
  %83 = load ptr, ptr %5, align 8
  %84 = load ptr, ptr %83, align 8
  %85 = load ptr, ptr %4, align 8
  %86 = call ptr @lappend(ptr noundef %84, ptr noundef %85)
  %87 = load ptr, ptr %5, align 8
  store ptr %86, ptr %87, align 8
  br label %88

88:                                               ; preds = %82, %72, %64
  ret void

89:                                               ; preds = %64
  unreachable
}