; Function Attrs: nounwind uwtable
define internal fastcc void @accumulate_append_subpath(ptr noundef %0, ptr noundef nonnull captures(none) %1, ptr noundef captures(address_is_null) %2) unnamed_addr #0 {
  %4 = load i32, ptr %0, align 4
  switch i32 %4, label %35 [
    i32 289, label %5
    i32 290, label %30
  ]

5:                                                ; preds = %3
  %6 = getelementptr inbounds nuw i8, ptr %0, i64 32
  %7 = load i8, ptr %6, align 8, !range !4, !noundef !5
  %8 = trunc nuw i8 %7 to i1
  br i1 %8, label %9, label %13

9:                                                ; preds = %5
  %10 = getelementptr inbounds nuw i8, ptr %0, i64 88
  %11 = load i32, ptr %10, align 8
  %12 = icmp eq i32 %11, 0
  br i1 %12, label %13, label %18

13:                                               ; preds = %9, %5
  %14 = load ptr, ptr %1, align 8
  %15 = getelementptr inbounds nuw i8, ptr %0, i64 80
  %16 = load ptr, ptr %15, align 8
  %17 = tail call ptr @list_concat(ptr noundef %14, ptr noundef %16) #9
  store ptr %17, ptr %1, align 8
  br label %.thread

18:                                               ; preds = %9
  %.not = icmp eq ptr %2, null
  br i1 %.not, label %35, label %19

19:                                               ; preds = %18
  %20 = load ptr, ptr %1, align 8
  %21 = getelementptr inbounds nuw i8, ptr %0, i64 80
  %22 = load ptr, ptr %21, align 8
  %23 = tail call ptr @list_copy_tail(ptr noundef %22, i32 noundef %11) #9
  %24 = tail call ptr @list_concat(ptr noundef %20, ptr noundef %23) #9
  store ptr %24, ptr %1, align 8
  %25 = load ptr, ptr %21, align 8
  %26 = load i32, ptr %10, align 8
  %27 = tail call ptr @list_copy_head(ptr noundef %25, i32 noundef %26) #9
  %28 = load ptr, ptr %2, align 8
  %29 = tail call ptr @list_concat(ptr noundef %28, ptr noundef %27) #9
  store ptr %29, ptr %2, align 8
  br label %.thread

30:                                               ; preds = %3
  %31 = load ptr, ptr %1, align 8
  %32 = getelementptr inbounds nuw i8, ptr %0, i64 80
  %33 = load ptr, ptr %32, align 8
  %34 = tail call ptr @list_concat(ptr noundef %31, ptr noundef %33) #9
  store ptr %34, ptr %1, align 8
  br label %.thread

35:                                               ; preds = %18, %3
  %36 = load ptr, ptr %1, align 8
  %37 = tail call ptr @lappend(ptr noundef %36, ptr noundef nonnull %0) #9
  store ptr %37, ptr %1, align 8
  br label %.thread

.thread:                                          ; preds = %19, %13, %35, %30
  ret void
}